target datalayout = "e-m:e-p270:32:32-p271:32:32-p272:64:64-i64:64-i128:128-f80:128-n8:16:32:64-S128"
target triple = "x86_64-pc-linux-gnu"

%"class.icu_77::UObject" = type { ptr }
%"class.icu_77::UnicodeString" = type { %"class.icu_77::Replaceable", %"union.icu_77::UnicodeString::StackBufferOrFields" }
%"class.icu_77::Replaceable" = type { %"class.icu_77::UObject" }
%"union.icu_77::UnicodeString::StackBufferOrFields" = type { %struct.anon.0, [32 x i8] }
%struct.anon.0 = type { i16, i32, i32, ptr }
%"class.icu_77::ConstChar16Ptr" = type { ptr }

; Function Attrs: inlinehint mustprogress nounwind uwtable
define linkonce_odr noundef ptr @_ZN6icu_778Collator13fromUCollatorEPK9UCollator(ptr noundef %0) #4 comdat align 2 {
  %2 = alloca ptr, align 8
  store ptr %0, ptr %2, align 8, !tbaa !62
  %3 = load ptr, ptr %2, align 8, !tbaa !62
  ret ptr %3
}

; Function Attrs: inlinehint mustprogress nounwind uwtable
define linkonce_odr noundef ptr @_ZN6icu_7724CollationElementIterator20toUCollationElementsEv(ptr noundef nonnull align 8 dereferenceable(104) %0) #4 comdat align 2 {
  %2 = alloca ptr, align 8
  store ptr %0, ptr %2, align 8, !tbaa !41
  %3 = load ptr, ptr %2, align 8
  ret ptr %3
}

; Function Attrs: inlinehint mustprogress nounwind uwtable
define linkonce_odr void @_ZN6icu_7714ConstChar16PtrD2Ev(ptr noundef nonnull align 8 dereferenceable(8) %0) unnamed_addr #4 comdat align 2 {
  %2 = alloca ptr, align 8
  store ptr %0, ptr %2, align 8, !tbaa !67
  %3 = load ptr, ptr %2, align 8
  %4 = getelementptr inbounds nuw %"class.icu_77::ConstChar16Ptr", ptr %3, i32 0, i32 0
  %5 = load ptr, ptr %4, align 8, !tbaa !69
  call void asm sideeffect "", "rm,~{memory},~{dirflag},~{fpsr},~{flags}"(ptr %5) #11, !srcloc !71
  ret void
}

; Function Attrs: inlinehint mustprogress nounwind uwtable
define linkonce_odr void @_ZN6icu_7714ConstChar16PtrC2EPKDs(ptr noundef nonnull align 8 dereferenceable(8) %0, ptr noundef %1) unnamed_addr #4 comdat align 2 {
  %3 = alloca ptr, align 8
  %4 = alloca ptr, align 8
  store ptr %0, ptr %3, align 8, !tbaa !67
  store ptr %1, ptr %4, align 8, !tbaa !64
  %5 = load ptr, ptr %3, align 8
  %6 = getelementptr inbounds nuw %"class.icu_77::ConstChar16Ptr", ptr %5, i32 0, i32 0
  %7 = load ptr, ptr %4, align 8, !tbaa !64
  store ptr %7, ptr %6, align 8, !tbaa !69
  ret void
}

; Function Attrs: inlinehint mustprogress uwtable
define linkonce_odr noundef ptr @_ZN6icu_7717RuleBasedCollator16rbcFromUCollatorEPK9UCollator(ptr noundef %0) #8 comdat align 2 {
  %2 = alloca ptr, align 8
  store ptr %0, ptr %2, align 8, !tbaa !62
  %3 = load ptr, ptr %2, align 8, !tbaa !62
  %4 = call noundef ptr @_ZN6icu_778Collator13fromUCollatorEPK9UCollator(ptr noundef %3)
  %5 = icmp eq ptr %4, null
  br i1 %5, label %9, label %6

6:                                                ; preds = %1
  %7 = load ptr, ptr %4, align 8, !tbaa !56
  %8 = icmp eq ptr %7, getelementptr inbounds inrange(-16, 328) ({ [43 x ptr] }, ptr @_ZTVN6icu_7717RuleBasedCollatorE, i32 0, i32 0, i32 2)
  br i1 %8, label %10, label %9

9:                                                ; preds = %6, %1
  br label %10

10:                                               ; preds = %9, %6
  %11 = phi ptr [ %4, %6 ], [ null, %9 ]
  ret ptr %11
}

; Function Attrs: inlinehint mustprogress nounwind uwtable
define internal noundef signext i8 @_ZL9U_FAILURE10UErrorCode(i32 noundef %0) #4 {
  %2 = alloca i32, align 4
  store i32 %0, ptr %2, align 4, !tbaa !16
  %3 = load i32, ptr %2, align 4, !tbaa !16
  %4 = icmp sgt i32 %3, 0
  %5 = zext i1 %4 to i8
  ret i8 %5
}

; Function Attrs: mustprogress uwtable
define ptr @ucol_openElements_77(ptr noundef %0, ptr noundef %1, i32 noundef %2, ptr noundef %3) #3 personality ptr @__gxx_personality_v0 {
  %5 = alloca ptr, align 8
  %6 = alloca ptr, align 8
  %7 = alloca ptr, align 8
  %8 = alloca i32, align 4
  %9 = alloca ptr, align 8
  %10 = alloca ptr, align 8
  %11 = alloca i32, align 4
  %12 = alloca %"class.icu_77::UnicodeString", align 8
  %13 = alloca %"class.icu_77::ConstChar16Ptr", align 8
  %14 = alloca ptr, align 8
  %15 = alloca i32, align 4
  %16 = alloca ptr, align 8
  store ptr %0, ptr %6, align 8, !tbaa !62
  store ptr %1, ptr %7, align 8, !tbaa !64
  store i32 %2, ptr %8, align 4, !tbaa !14
  store ptr %3, ptr %9, align 8, !tbaa !15
  %17 = load ptr, ptr %9, align 8, !tbaa !15
  %18 = load i32, ptr %17, align 4, !tbaa !16
  %19 = call noundef signext i8 @_ZL9U_FAILURE10UErrorCode(i32 noundef %18)
  %20 = icmp ne i8 %19, 0
  br i1 %20, label %21, label %22

21:                                               ; preds = %4
  store ptr null, ptr %5, align 8
  br label %69

22:                                               ; preds = %4
  %23 = load ptr, ptr %6, align 8, !tbaa !62
  %24 = icmp eq ptr %23, null
  br i1 %24, label %31, label %25

25:                                               ; preds = %22
  %26 = load ptr, ptr %7, align 8, !tbaa !64
  %27 = icmp eq ptr %26, null
  br i1 %27, label %28, label %33

28:                                               ; preds = %25
  %29 = load i32, ptr %8, align 4, !tbaa !14
  %30 = icmp ne i32 %29, 0
  br i1 %30, label %31, label %33

31:                                               ; preds = %28, %22
  %32 = load ptr, ptr %9, align 8, !tbaa !15
  store i32 1, ptr %32, align 4, !tbaa !16
  store ptr null, ptr %5, align 8
  br label %69

33:                                               ; preds = %28, %25
  call void @llvm.lifetime.start.p0(i64 8, ptr %10) #11
  %34 = load ptr, ptr %6, align 8, !tbaa !62
  %35 = call noundef ptr @_ZN6icu_7717RuleBasedCollator16rbcFromUCollatorEPK9UCollator(ptr noundef %34)
  store ptr %35, ptr %10, align 8, !tbaa !66
  %36 = load ptr, ptr %10, align 8, !tbaa !66
  %37 = icmp eq ptr %36, null
  br i1 %37, label %38, label %40

38:                                               ; preds = %33
  %39 = load ptr, ptr %9, align 8, !tbaa !15
  store i32 16, ptr %39, align 4, !tbaa !16
  store ptr null, ptr %5, align 8
  store i32 1, ptr %11, align 4
  br label %68

40:                                               ; preds = %33
  call void @llvm.lifetime.start.p0(i64 64, ptr %12) #11
  %41 = load i32, ptr %8, align 4, !tbaa !14
  %42 = icmp slt i32 %41, 0
  %43 = zext i1 %42 to i8
  %44 = load ptr, ptr %7, align 8, !tbaa !64
  call void @_ZN6icu_7714ConstChar16PtrC2EPKDs(ptr noundef nonnull align 8 dereferenceable(8) %13, ptr noundef %44)
  %45 = load i32, ptr %8, align 4, !tbaa !14
  invoke void @_ZN6icu_7713UnicodeStringC1EaNS_14ConstChar16PtrEi(ptr noundef nonnull align 8 dereferenceable(64) %12, i8 noundef signext %43, ptr noundef %13, i32 noundef %45)
          to label %46 unwind label %54

46:                                               ; preds = %40
  call void @_ZN6icu_7714ConstChar16PtrD2Ev(ptr noundef nonnull align 8 dereferenceable(8) %13) #11
  call void @llvm.lifetime.start.p0(i64 8, ptr %16) #11
  %47 = load ptr, ptr %10, align 8, !tbaa !66
  %48 = invoke noundef ptr @_ZNK6icu_7717RuleBasedCollator30createCollationElementIteratorERKNS_13UnicodeStringE(ptr noundef nonnull align 8 dereferenceable(272) %47, ptr noundef nonnull align 8 dereferenceable(64) %12)
          to label %49 unwind label %58

49:                                               ; preds = %46
  store ptr %48, ptr %16, align 8, !tbaa !41
  %50 = load ptr, ptr %16, align 8, !tbaa !41
  %51 = icmp eq ptr %50, null
  br i1 %51, label %52, label %62

52:                                               ; preds = %49
  %53 = load ptr, ptr %9, align 8, !tbaa !15
  store i32 7, ptr %53, align 4, !tbaa !16
  store ptr null, ptr %5, align 8
  store i32 1, ptr %11, align 4
  br label %66

54:                                               ; preds = %40
  %55 = landingpad { ptr, i32 }
          cleanup
  %56 = extractvalue { ptr, i32 } %55, 0
  store ptr %56, ptr %14, align 8
  %57 = extractvalue { ptr, i32 } %55, 1
  store i32 %57, ptr %15, align 4
  call void @_ZN6icu_7714ConstChar16PtrD2Ev(ptr noundef nonnull align 8 dereferenceable(8) %13) #11
  br label %67

58:                                               ; preds = %62, %46
  %59 = landingpad { ptr, i32 }
          cleanup
  %60 = extractvalue { ptr, i32 } %59, 0
  store ptr %60, ptr %14, align 8
  %61 = extractvalue { ptr, i32 } %59, 1
  store i32 %61, ptr %15, align 4
  call void @llvm.lifetime.end.p0(i64 8, ptr %16) #11
  call void @_ZN6icu_7713UnicodeStringD1Ev(ptr noundef nonnull align 8 dereferenceable(64) %12) #11
  br label %67

62:                                               ; preds = %49
  %63 = load ptr, ptr %16, align 8, !tbaa !41
  %64 = invoke noundef ptr @_ZN6icu_7724CollationElementIterator20toUCollationElementsEv(ptr noundef nonnull align 8 dereferenceable(104) %63)
          to label %65 unwind label %58

65:                                               ; preds = %62
  store ptr %64, ptr %5, align 8
  store i32 1, ptr %11, align 4
  br label %66

66:                                               ; preds = %65, %52
  call void @llvm.lifetime.end.p0(i64 8, ptr %16) #11
  call void @_ZN6icu_7713UnicodeStringD1Ev(ptr noundef nonnull align 8 dereferenceable(64) %12) #11
  call void @llvm.lifetime.end.p0(i64 64, ptr %12) #11
  br label %68

67:                                               ; preds = %58, %54
  call void @llvm.lifetime.end.p0(i64 64, ptr %12) #11
  call void @llvm.lifetime.end.p0(i64 8, ptr %10) #11
  br label %71

68:                                               ; preds = %66, %38
  call void @llvm.lifetime.end.p0(i64 8, ptr %10) #11
  br label %69

69:                                               ; preds = %68, %31, %21
  %70 = load ptr, ptr %5, align 8
  ret ptr %70

71:                                               ; preds = %67
  %72 = load ptr, ptr %14, align 8
  %73 = load i32, ptr %15, align 4
  %74 = insertvalue { ptr, i32 } poison, ptr %72, 0
  %75 = insertvalue { ptr, i32 } %74, i32 %73, 1
  resume { ptr, i32 } %75
}