; Function Attrs: mustprogress uwtable
define noundef ptr @ucol_openElements_77(ptr noundef %0, ptr noundef %1, i32 noundef %2, ptr noundef captures(none) %3) local_unnamed_addr #6 personality ptr @__gxx_personality_v0 {
  %5 = alloca %"class.icu_77::UnicodeString", align 8
  %6 = alloca %"class.icu_77::ConstChar16Ptr", align 8
  %7 = load i32, ptr %3, align 4, !tbaa !12
  %8 = icmp slt i32 %7, 1
  br i1 %8, label %9, label %33

9:                                                ; preds = %4
  %10 = icmp eq ptr %0, null
  br i1 %10, label %14, label %11

11:                                               ; preds = %9
  %12 = icmp eq ptr %1, null
  %13 = icmp ne i32 %2, 0
  %or.cond = and i1 %12, %13
  br i1 %or.cond, label %14, label %15

14:                                               ; preds = %11, %9
  store i32 1, ptr %3, align 4, !tbaa !12
  br label %33

15:                                               ; preds = %11
  %16 = load ptr, ptr %0, align 8, !tbaa !40
  %17 = icmp eq ptr %16, getelementptr inbounds nuw inrange(-16, 328) (i8, ptr @_ZTVN6icu_7717RuleBasedCollatorE, i64 16)
  br i1 %17, label %_ZN6icu_7717RuleBasedCollator16rbcFromUCollatorEPK9UCollator.exit, label %18

18:                                               ; preds = %15
  store i32 16, ptr %3, align 4, !tbaa !12
  br label %33

_ZN6icu_7717RuleBasedCollator16rbcFromUCollatorEPK9UCollator.exit: ; preds = %15
  call void @llvm.lifetime.start.p0(i64 64, ptr nonnull %5) #14
  %.lobit = lshr i32 %2, 31
  %19 = trunc nuw nsw i32 %.lobit to i8
  store ptr %1, ptr %6, align 8, !tbaa !46
  invoke void @_ZN6icu_7713UnicodeStringC1EaNS_14ConstChar16PtrEi(ptr noundef nonnull align 8 dereferenceable(64) %5, i8 noundef signext %19, ptr noundef nonnull %6, i32 noundef %2)
          to label %20 unwind label %26

20:                                               ; preds = %_ZN6icu_7717RuleBasedCollator16rbcFromUCollatorEPK9UCollator.exit
  %21 = load ptr, ptr %6, align 8, !tbaa !46
  call void asm sideeffect "", "rm,~{memory},~{dirflag},~{fpsr},~{flags}"(ptr %21) #14, !srcloc !49
  %22 = invoke noundef ptr @_ZNK6icu_7717RuleBasedCollator30createCollationElementIteratorERKNS_13UnicodeStringE(ptr noundef nonnull align 8 dereferenceable(272) %0, ptr noundef nonnull align 8 dereferenceable(64) %5)
          to label %23 unwind label %29

23:                                               ; preds = %20
  %24 = icmp eq ptr %22, null
  br i1 %24, label %25, label %31

25:                                               ; preds = %23
  store i32 7, ptr %3, align 4, !tbaa !12
  br label %31

26:                                               ; preds = %_ZN6icu_7717RuleBasedCollator16rbcFromUCollatorEPK9UCollator.exit
  %27 = landingpad { ptr, i32 }
          cleanup
  %28 = load ptr, ptr %6, align 8, !tbaa !46
  call void asm sideeffect "", "rm,~{memory},~{dirflag},~{fpsr},~{flags}"(ptr %28) #14, !srcloc !49
  br label %32

29:                                               ; preds = %20
  %30 = landingpad { ptr, i32 }
          cleanup
  call void @_ZN6icu_7713UnicodeStringD1Ev(ptr noundef nonnull align 8 dereferenceable(64) %5) #14
  br label %32

31:                                               ; preds = %23, %25
  call void @_ZN6icu_7713UnicodeStringD1Ev(ptr noundef nonnull align 8 dereferenceable(64) %5) #14
  call void @llvm.lifetime.end.p0(i64 64, ptr nonnull %5) #14
  br label %33

32:                                               ; preds = %29, %26
  %.pn = phi { ptr, i32 } [ %30, %29 ], [ %27, %26 ]
  call void @llvm.lifetime.end.p0(i64 64, ptr nonnull %5) #14
  resume { ptr, i32 } %.pn

33:                                               ; preds = %18, %31, %4, %14
  %.0 = phi ptr [ null, %14 ], [ null, %4 ], [ null, %18 ], [ %22, %31 ]
  ret ptr %.0
}